; Function Attrs: mustprogress nofree norecurse nosync nounwind willreturn memory(read, inaccessiblemem: none) uwtable
define dso_local range(i32 -1, 2) i32 @bb_job_queue_sort(ptr noundef readonly captures(none) %0, ptr noundef readonly captures(none) %1) local_unnamed_addr #13 {
  %3 = load ptr, ptr %0, align 8
  %4 = load ptr, ptr %1, align 8
  %5 = getelementptr inbounds nuw i8, ptr %3, i64 8
  %6 = load ptr, ptr %5, align 8
  %7 = getelementptr inbounds nuw i8, ptr %4, i64 8
  %8 = load ptr, ptr %7, align 8
  %9 = getelementptr inbounds nuw i8, ptr %6, i64 912
  %10 = load i64, ptr %9, align 8
  %11 = getelementptr inbounds nuw i8, ptr %8, i64 912
  %12 = load i64, ptr %11, align 8
  %.0 = tail call i32 @llvm.scmp.i32.i64(i64 %10, i64 %12)
  ret i32 %.0
}